Open Watcom Linker Version 2.0 beta Mar 11 2024 01:43:40 (32-bit)
Copyright (c) 2002-2024 The Open Watcom Contributors. All Rights Reserved.
Portions Copyright (c) 1985-2002 Sybase, Inc. All Rights Reserved.
Created on:       24/03/15 11:27:08
Executable Image: /home/althaf/Osdev/build/stage2.bin
creating a RAW Binary Image executable


                        +------------+
                        |   Groups   |
                        +------------+

Group                           Address              Size
=====                           =======              ====

DGROUP                          00001aec             000001f6



                        +--------------+
                        |   Segments   |
                        +--------------+

Segment                Class          Group          Address         Size
=======                =====          =====          =======         ====

_ENTRY                 CODE           AUTO           00000000        00000013
_TEXT                  CODE           AUTO           00000013        00001ad9
CONST                  DATA           DGROUP         00001aec        000001d3
CONST2                 DATA           DGROUP         00001cc0        00000011
_DATA                  DATA           DGROUP         00001cd2        00000008
_BSS                   BSS            DGROUP         00001cda        00000008


                        +----------------+
                        |   Memory Map   |
                        +----------------+

* = unreferenced symbol
+ = symbol only referenced locally

Address        Symbol
=======        ======

Module: /home/althaf/Osdev/build/stage2/asm/main.obj(main.asm)
00000000       entry
Module: /home/althaf/Osdev/build/stage2/asm/x86.obj(x86.asm)
00000013       __U4D
0000003a       __U4M
00000054       _x86_div64_32
00000082       _x86_Video_WriteCharTeletype
00000095       _x86_Disk_Reset
000000aa       _x86_Disk_Read
000000e1       _x86_Disk_GetDriveParams
Module: /home/althaf/Osdev/build/stage2/c/ctype.obj(/home/althaf/Osdev/src/bootloader/stage2/ctype.c)
00000125+      islower_
00000163       toupper_
Module: /home/althaf/Osdev/build/stage2/c/disk.obj(/home/althaf/Osdev/src/bootloader/stage2/disk.c)
000001ab       DISK_Initialize_
00000221+      DISK_LBA2CHS_
000002d4       DISK_ReadSectors_
Module: /home/althaf/Osdev/build/stage2/c/fat.obj(/home/althaf/Osdev/src/bootloader/stage2/fat.c)
00000371+      FAT_ReadBootSector_
000003a5+      FAT_ReadFat_
000003e9       FAT_Initialize_
0000062f+      FAT_ClusterToLba_
00000685+      FAT_OpenEntry_
0000084f+      FAT_NextCluster_
000008d8       FAT_Read_
00000c3c       FAT_ReadEntry_
00000c95       FAT_Close_
00000d0c+      FAT_FindFile_
00000e46       FAT_Open_
Module: /home/althaf/Osdev/build/stage2/c/main.obj(/home/althaf/Osdev/src/bootloader/stage2/main.c)
00000fc0       _cstart_
00001cd6+      _g_data
Module: /home/althaf/Osdev/build/stage2/c/memory.obj(/home/althaf/Osdev/src/bootloader/stage2/memory.c)
000011ef       memcpy_
00001263       memset_
000012c2       memcmp_
Module: /home/althaf/Osdev/build/stage2/c/stdio.obj(/home/althaf/Osdev/src/bootloader/stage2/stdio.c)
0000133b       putc_
00001362       puts_
00001399+      puts_f_
000013d6       _printf
00001659+      printf_number_
000018cd+      print_buffer_
00001cc0+      _g_HexChars
Module: /home/althaf/Osdev/build/stage2/c/string.obj(/home/althaf/Osdev/src/bootloader/stage2/string.c)
00001949       strchr_
000019a4+      strcpy_
00001a18       strlen_
Module: /home/althaf/Osdev/build/stage2/c/utility.obj(/home/althaf/Osdev/src/bootloader/stage2/utility.c)
00001a53+      align_


                        +---------------------+
                        |   Module Segments   |
                        +---------------------+

! = 32-bit segment
c = initialized communal data

Module          Segment               Class           Address         Size
======          =======               =====           =======         ====

main.asm        _ENTRY                CODE           00000000         00000013
x86.asm         _TEXT                 CODE           00000013         00000112
/home/althaf/Osdev/src/bootloader/stage2/ctype.c
                _TEXT                 CODE           00000125         00000086
                CONST                 DATA           00001aec         00000000
                CONST2                DATA           00001cc0         00000000
                _DATA                 DATA           00001cd2         00000000
/home/althaf/Osdev/src/bootloader/stage2/disk.c
                _TEXT                 CODE           000001ab         000001c6
                CONST                 DATA           00001aec         00000000
                CONST2                DATA           00001cc0         00000000
                _DATA                 DATA           00001cd2         00000000
/home/althaf/Osdev/src/bootloader/stage2/fat.c
                _TEXT                 CODE           00000371         00000c4f
                CONST                 DATA           00001aec         00000107
                CONST2                DATA           00001cc0         00000000
                _DATA                 DATA           00001cd2         00000004
                _BSS                  BSS            00001cda         00000008
/home/althaf/Osdev/src/bootloader/stage2/main.c
                _TEXT                 CODE           00000fc0         0000022f
                CONST                 DATA           00001bf4         000000c8
                CONST2                DATA           00001cc0         00000000
                _DATA                 DATA           00001cd6         00000004
/home/althaf/Osdev/src/bootloader/stage2/memory.c
                _TEXT                 CODE           000011ef         0000014c
                CONST                 DATA           00001cbc         00000000
                CONST2                DATA           00001cc0         00000000
                _DATA                 DATA           00001cda         00000000
/home/althaf/Osdev/src/bootloader/stage2/stdio.c
                _TEXT                 CODE           0000133b         0000060e
                CONST                 DATA           00001cbc         00000003
                CONST2                DATA           00001cc0         00000011
                _DATA                 DATA           00001cda         00000000
/home/althaf/Osdev/src/bootloader/stage2/string.c
                _TEXT                 CODE           00001949         0000010a
                CONST                 DATA           00001cc0         00000000
                CONST2                DATA           00001cd2         00000000
                _DATA                 DATA           00001cda         00000000
/home/althaf/Osdev/src/bootloader/stage2/utility.c
                _TEXT                 CODE           00001a53         00000099
                CONST                 DATA           00001cc0         00000000
                CONST2                DATA           00001cd2         00000000
                _DATA                 DATA           00001cda         00000000
Warning! W1014: stack segment not found


                        +-----------------------+
                        |   Linker Statistics   |
                        +-----------------------+

Stack size:  0200 (512.)
Memory size:  1ce2 (7394.)
Entry point address: 00000000
Link time: 00:00.00
